; Function Attrs: nounwind sspstrong uwtable
define internal noundef i64 @rb_ary_rotate_bang(i32 noundef %0, ptr noundef readonly captures(none) %1, i64 noundef returned %2) #4 {
  %or.cond.not = icmp ult i32 %0, 2
  br i1 %or.cond.not, label %rb_check_arity.exit, label %4

4:                                                ; preds = %3
  tail call void @rb_error_arity(i32 noundef %0, i32 noundef 0, i32 noundef 1) #23
  unreachable

rb_check_arity.exit:                              ; preds = %3
  %.not = icmp eq i32 %0, 0
  br i1 %.not, label %rb_num2long_inline.exit, label %5

5:                                                ; preds = %rb_check_arity.exit
  %6 = load i64, ptr %1, align 8, !tbaa !13
  %7 = and i64 %6, 1
  %.not.i = icmp eq i64 %7, 0
  br i1 %.not.i, label %10, label %8

8:                                                ; preds = %5
  %9 = ashr i64 %6, 1
  br label %rb_num2long_inline.exit

10:                                               ; preds = %5
  %11 = tail call i64 @rb_num2long(i64 noundef %6) #24
  br label %rb_num2long_inline.exit

rb_num2long_inline.exit:                          ; preds = %10, %8, %rb_check_arity.exit
  %12 = phi i64 [ 1, %rb_check_arity.exit ], [ %9, %8 ], [ %11, %10 ]
  %13 = tail call i64 @rb_ary_rotate(i64 noundef %2, i64 noundef %12)
  ret i64 %2
}